target datalayout = "e-m:e-p270:32:32-p271:32:32-p272:64:64-i64:64-i128:128-f80:128-n8:16:32:64-S128"
target triple = "x86_64-pc-linux-gnu"

%class.ProtoNode = type { ptr, %class.QList, ptr }
%class.QList = type { %struct.QArrayDataPointer }
%struct.QArrayDataPointer = type { ptr, ptr, i64 }
%struct._proto_node = type { ptr, ptr, ptr, ptr, ptr, ptr, ptr }
%"class.QList<ProtoNode *>::const_iterator" = type { ptr }

; Function Attrs: mustprogress nounwind null_pointer_is_valid sspstrong uwtable
define linkonce_odr noundef ptr @_ZNK17QArrayDataPointerIP9ProtoNodeE4dataEv(ptr noundef align 8 dereferenceable_or_null(24) %0) #1 comdat align 2 {
  %2 = alloca ptr, align 8
  store ptr %0, ptr %2, align 8
  %3 = load ptr, ptr %2, align 8
  %4 = getelementptr inbounds nuw %struct.QArrayDataPointer, ptr %3, i32 0, i32 1
  %5 = load ptr, ptr %4, align 8
  ret ptr %5
}

; Function Attrs: mustprogress nounwind null_pointer_is_valid sspstrong uwtable
define linkonce_odr noundef ptr @_ZNK17QArrayDataPointerIP9ProtoNodeE8constEndEv(ptr noundef align 8 dereferenceable_or_null(24) %0) #1 comdat align 2 {
  %2 = alloca ptr, align 8
  store ptr %0, ptr %2, align 8
  %3 = load ptr, ptr %2, align 8
  %4 = call noundef ptr @_ZNK17QArrayDataPointerIP9ProtoNodeE4dataEv(ptr noundef align 8 dereferenceable_or_null(24) %3) #19
  %5 = getelementptr inbounds nuw %struct.QArrayDataPointer, ptr %3, i32 0, i32 2
  %6 = load i64, ptr %5, align 8
  %7 = getelementptr ptr, ptr %4, i64 %6
  ret ptr %7
}

; Function Attrs: inlinehint mustprogress nounwind null_pointer_is_valid sspstrong uwtable
define linkonce_odr void @_ZN5QListIP9ProtoNodeE14const_iteratorC2EPKS1_(ptr noundef align 8 dereferenceable_or_null(8) %0, ptr noundef %1) unnamed_addr #5 comdat align 2 {
  %3 = alloca ptr, align 8
  %4 = alloca ptr, align 8
  store ptr %0, ptr %3, align 8
  store ptr %1, ptr %4, align 8
  %5 = load ptr, ptr %3, align 8
  %6 = getelementptr inbounds nuw %"class.QList<ProtoNode *>::const_iterator", ptr %5, i32 0, i32 0
  %7 = load ptr, ptr %4, align 8
  store ptr %7, ptr %6, align 8
  ret void
}

; Function Attrs: mustprogress nounwind null_pointer_is_valid sspstrong uwtable
define linkonce_odr noundef ptr @_ZNK17QArrayDataPointerIP9ProtoNodeE10constBeginEv(ptr noundef align 8 dereferenceable_or_null(24) %0) #1 comdat align 2 {
  %2 = alloca ptr, align 8
  store ptr %0, ptr %2, align 8
  %3 = load ptr, ptr %2, align 8
  %4 = call noundef ptr @_ZNK17QArrayDataPointerIP9ProtoNodeE4dataEv(ptr noundef align 8 dereferenceable_or_null(24) %3) #19
  ret ptr %4
}

; Function Attrs: mustprogress nounwind null_pointer_is_valid sspstrong uwtable
define linkonce_odr noundef ptr @_ZNK17QArrayDataPointerIP9ProtoNodeEptEv(ptr noundef align 8 dereferenceable_or_null(24) %0) #1 comdat align 2 {
  %2 = alloca ptr, align 8
  store ptr %0, ptr %2, align 8
  %3 = load ptr, ptr %2, align 8
  ret ptr %3
}

; Function Attrs: inlinehint mustprogress nounwind null_pointer_is_valid sspstrong uwtable
define linkonce_odr noundef i64 @_ZNK5QListIP9ProtoNodeE14const_iteratormiES3_(ptr noundef align 8 dereferenceable_or_null(8) %0, ptr %1) #5 comdat align 2 {
  %3 = alloca %"class.QList<ProtoNode *>::const_iterator", align 8
  %4 = alloca ptr, align 8
  %5 = getelementptr inbounds nuw %"class.QList<ProtoNode *>::const_iterator", ptr %3, i32 0, i32 0
  store ptr %1, ptr %5, align 8
  store ptr %0, ptr %4, align 8
  %6 = load ptr, ptr %4, align 8
  %7 = getelementptr inbounds nuw %"class.QList<ProtoNode *>::const_iterator", ptr %6, i32 0, i32 0
  %8 = load ptr, ptr %7, align 8
  %9 = getelementptr inbounds nuw %"class.QList<ProtoNode *>::const_iterator", ptr %3, i32 0, i32 0
  %10 = load ptr, ptr %9, align 8
  %11 = ptrtoint ptr %8 to i64
  %12 = ptrtoint ptr %10 to i64
  %13 = sub i64 %11, %12
  %14 = sdiv exact i64 %13, 8
  ret i64 %14
}

; Function Attrs: inlinehint mustprogress nounwind null_pointer_is_valid sspstrong uwtable
define linkonce_odr noundef align 8 dereferenceable(8) ptr @_ZNK5QListIP9ProtoNodeE14const_iteratordeEv(ptr noundef align 8 dereferenceable_or_null(8) %0) #5 comdat align 2 {
  %2 = alloca ptr, align 8
  store ptr %0, ptr %2, align 8
  %3 = load ptr, ptr %2, align 8
  %4 = getelementptr inbounds nuw %"class.QList<ProtoNode *>::const_iterator", ptr %3, i32 0, i32 0
  %5 = load ptr, ptr %4, align 8
  ret ptr %5
}

; Function Attrs: inlinehint mustprogress nounwind null_pointer_is_valid sspstrong uwtable
define linkonce_odr noundef zeroext i1 @_ZNK5QListIP9ProtoNodeE14const_iteratorneES3_(ptr noundef align 8 dereferenceable_or_null(8) %0, ptr %1) #5 comdat align 2 {
  %3 = alloca %"class.QList<ProtoNode *>::const_iterator", align 8
  %4 = alloca ptr, align 8
  %5 = getelementptr inbounds nuw %"class.QList<ProtoNode *>::const_iterator", ptr %3, i32 0, i32 0
  store ptr %1, ptr %5, align 8
  store ptr %0, ptr %4, align 8
  %6 = load ptr, ptr %4, align 8
  %7 = getelementptr inbounds nuw %"class.QList<ProtoNode *>::const_iterator", ptr %6, i32 0, i32 0
  %8 = load ptr, ptr %7, align 8
  %9 = getelementptr inbounds nuw %"class.QList<ProtoNode *>::const_iterator", ptr %3, i32 0, i32 0
  %10 = load ptr, ptr %9, align 8
  %11 = icmp ne ptr %8, %10
  ret i1 %11
}

; Function Attrs: inlinehint mustprogress nounwind null_pointer_is_valid sspstrong uwtable
define linkonce_odr noundef align 8 dereferenceable(8) ptr @_ZN5QListIP9ProtoNodeE14const_iteratorppEv(ptr noundef align 8 dereferenceable_or_null(8) %0) #5 comdat align 2 {
  %2 = alloca ptr, align 8
  store ptr %0, ptr %2, align 8
  %3 = load ptr, ptr %2, align 8
  %4 = getelementptr inbounds nuw %"class.QList<ProtoNode *>::const_iterator", ptr %3, i32 0, i32 0
  %5 = load ptr, ptr %4, align 8
  %6 = getelementptr ptr, ptr %5, i32 1
  store ptr %6, ptr %4, align 8
  ret ptr %3
}

; Function Attrs: mustprogress nounwind null_pointer_is_valid sspstrong uwtable
define linkonce_odr ptr @_ZNK5QListIP9ProtoNodeE3endEv(ptr noundef align 8 dereferenceable_or_null(24) %0) #1 comdat align 2 personality ptr @__gxx_personality_v0 {
  %2 = alloca %"class.QList<ProtoNode *>::const_iterator", align 8
  %3 = alloca ptr, align 8
  store ptr %0, ptr %3, align 8
  %4 = load ptr, ptr %3, align 8
  %5 = getelementptr inbounds nuw %class.QList, ptr %4, i32 0, i32 0
  %6 = call noundef ptr @_ZNK17QArrayDataPointerIP9ProtoNodeEptEv(ptr noundef align 8 dereferenceable_or_null(24) %5) #19
  %7 = call noundef ptr @_ZNK17QArrayDataPointerIP9ProtoNodeE8constEndEv(ptr noundef align 8 dereferenceable_or_null(24) %6) #19
  invoke void @_ZN5QListIP9ProtoNodeE14const_iteratorC2EPKS1_(ptr noundef align 8 dereferenceable_or_null(8) %2, ptr noundef %7)
          to label %8 unwind label %11

8:                                                ; preds = %1
  %9 = getelementptr inbounds nuw %"class.QList<ProtoNode *>::const_iterator", ptr %2, i32 0, i32 0
  %10 = load ptr, ptr %9, align 8
  ret ptr %10

11:                                               ; preds = %1
  %12 = landingpad { ptr, i32 }
          catch ptr null
  %13 = extractvalue { ptr, i32 } %12, 0
  call void @__clang_call_terminate(ptr %13) #22
  unreachable
}

; Function Attrs: mustprogress null_pointer_is_valid sspstrong uwtable
define linkonce_odr ptr @_ZNK5QListIP9ProtoNodeE14const_iteratormiIiEENSt9enable_ifIXsr3stdE13is_integral_vIT_EES3_E4typeES6_(ptr noundef align 8 dereferenceable_or_null(8) %0, i32 noundef %1) #0 comdat align 2 {
  %3 = alloca %"class.QList<ProtoNode *>::const_iterator", align 8
  %4 = alloca ptr, align 8
  %5 = alloca i32, align 4
  store ptr %0, ptr %4, align 8
  store i32 %1, ptr %5, align 4
  %6 = load ptr, ptr %4, align 8
  %7 = getelementptr inbounds nuw %"class.QList<ProtoNode *>::const_iterator", ptr %6, i32 0, i32 0
  %8 = load ptr, ptr %7, align 8
  %9 = load i32, ptr %5, align 4
  %10 = sext i32 %9 to i64
  %11 = sub i64 0, %10
  %12 = getelementptr ptr, ptr %8, i64 %11
  call void @_ZN5QListIP9ProtoNodeE14const_iteratorC2EPKS1_(ptr noundef align 8 dereferenceable_or_null(8) %3, ptr noundef %12)
  %13 = getelementptr inbounds nuw %"class.QList<ProtoNode *>::const_iterator", ptr %3, i32 0, i32 0
  %14 = load ptr, ptr %13, align 8
  ret ptr %14
}

; Function Attrs: mustprogress null_pointer_is_valid sspstrong uwtable
define linkonce_odr ptr @_ZNK5QListIP9ProtoNodeE14const_iteratorplIxEENSt9enable_ifIXsr3stdE13is_integral_vIT_EES3_E4typeES6_(ptr noundef align 8 dereferenceable_or_null(8) %0, i64 noundef %1) #0 comdat align 2 {
  %3 = alloca %"class.QList<ProtoNode *>::const_iterator", align 8
  %4 = alloca ptr, align 8
  %5 = alloca i64, align 8
  store ptr %0, ptr %4, align 8
  store i64 %1, ptr %5, align 8
  %6 = load ptr, ptr %4, align 8
  %7 = getelementptr inbounds nuw %"class.QList<ProtoNode *>::const_iterator", ptr %6, i32 0, i32 0
  %8 = load ptr, ptr %7, align 8
  %9 = load i64, ptr %5, align 8
  %10 = getelementptr ptr, ptr %8, i64 %9
  call void @_ZN5QListIP9ProtoNodeE14const_iteratorC2EPKS1_(ptr noundef align 8 dereferenceable_or_null(8) %3, ptr noundef %10)
  %11 = getelementptr inbounds nuw %"class.QList<ProtoNode *>::const_iterator", ptr %3, i32 0, i32 0
  %12 = load ptr, ptr %11, align 8
  ret ptr %12
}

; Function Attrs: mustprogress nounwind null_pointer_is_valid sspstrong uwtable
define linkonce_odr ptr @_ZNK5QListIP9ProtoNodeE5beginEv(ptr noundef align 8 dereferenceable_or_null(24) %0) #1 comdat align 2 personality ptr @__gxx_personality_v0 {
  %2 = alloca %"class.QList<ProtoNode *>::const_iterator", align 8
  %3 = alloca ptr, align 8
  store ptr %0, ptr %3, align 8
  %4 = load ptr, ptr %3, align 8
  %5 = getelementptr inbounds nuw %class.QList, ptr %4, i32 0, i32 0
  %6 = call noundef ptr @_ZNK17QArrayDataPointerIP9ProtoNodeEptEv(ptr noundef align 8 dereferenceable_or_null(24) %5) #19
  %7 = call noundef ptr @_ZNK17QArrayDataPointerIP9ProtoNodeE10constBeginEv(ptr noundef align 8 dereferenceable_or_null(24) %6) #19
  invoke void @_ZN5QListIP9ProtoNodeE14const_iteratorC2EPKS1_(ptr noundef align 8 dereferenceable_or_null(8) %2, ptr noundef %7)
          to label %8 unwind label %11

8:                                                ; preds = %1
  %9 = getelementptr inbounds nuw %"class.QList<ProtoNode *>::const_iterator", ptr %2, i32 0, i32 0
  %10 = load ptr, ptr %9, align 8
  ret ptr %10

11:                                               ; preds = %1
  %12 = landingpad { ptr, i32 }
          catch ptr null
  %13 = extractvalue { ptr, i32 } %12, 0
  call void @__clang_call_terminate(ptr %13) #22
  unreachable
}

; Function Attrs: inlinehint mustprogress nounwind null_pointer_is_valid sspstrong uwtable
define linkonce_odr noundef align 8 dereferenceable(8) ptr @_Z4qMaxIxERKT_S2_S2_(ptr noundef align 8 dereferenceable(8) %0, ptr noundef align 8 dereferenceable(8) %1) #5 comdat {
  %3 = alloca ptr, align 8
  %4 = alloca ptr, align 8
  store ptr %0, ptr %3, align 8
  store ptr %1, ptr %4, align 8
  %5 = load ptr, ptr %3, align 8
  %6 = load i64, ptr %5, align 8
  %7 = load ptr, ptr %4, align 8
  %8 = load i64, ptr %7, align 8
  %9 = icmp slt i64 %6, %8
  br i1 %9, label %10, label %12

10:                                               ; preds = %2
  %11 = load ptr, ptr %4, align 8
  br label %14

12:                                               ; preds = %2
  %13 = load ptr, ptr %3, align 8
  br label %14

14:                                               ; preds = %12, %10
  %15 = phi ptr [ %11, %10 ], [ %13, %12 ]
  ret ptr %15
}

; Function Attrs: mustprogress nounwind null_pointer_is_valid sspstrong uwtable
define linkonce_odr noundef i64 @_ZNK5QListIP9ProtoNodeE4sizeEv(ptr noundef align 8 dereferenceable_or_null(24) %0) #1 comdat align 2 {
  %2 = alloca ptr, align 8
  store ptr %0, ptr %2, align 8
  %3 = load ptr, ptr %2, align 8
  %4 = getelementptr inbounds nuw %class.QList, ptr %3, i32 0, i32 0
  %5 = call noundef ptr @_ZNK17QArrayDataPointerIP9ProtoNodeEptEv(ptr noundef align 8 dereferenceable_or_null(24) %4) #19
  %6 = getelementptr inbounds nuw %struct.QArrayDataPointer, ptr %5, i32 0, i32 2
  %7 = load i64, ptr %6, align 8
  ret i64 %7
}

; Function Attrs: noinline noreturn nounwind null_pointer_is_valid sspstrong uwtable
define linkonce_odr hidden void @__clang_call_terminate(ptr noundef %0) #7 comdat {
  %2 = call ptr @__cxa_begin_catch(ptr %0) #19
  call void @_ZSt9terminatev() #22
  unreachable
}

; Function Attrs: mustprogress nounwind null_pointer_is_valid sspstrong uwtable
define linkonce_odr noundef i64 @_ZN9QtPrivate7indexOfIP9ProtoNodeS2_EExRK5QListIT_ERKT0_x(ptr noundef align 8 dereferenceable(24) %0, ptr noundef align 8 dereferenceable(8) %1, i64 noundef %2) #1 comdat personality ptr @__gxx_personality_v0 {
  %4 = alloca i64, align 8
  %5 = alloca ptr, align 8
  %6 = alloca ptr, align 8
  %7 = alloca i64, align 8
  %8 = alloca i64, align 8
  %9 = alloca i64, align 8
  %10 = alloca %"class.QList<ProtoNode *>::const_iterator", align 8
  %11 = alloca %"class.QList<ProtoNode *>::const_iterator", align 8
  %12 = alloca %"class.QList<ProtoNode *>::const_iterator", align 8
  %13 = alloca %"class.QList<ProtoNode *>::const_iterator", align 8
  %14 = alloca %"class.QList<ProtoNode *>::const_iterator", align 8
  %15 = alloca %"class.QList<ProtoNode *>::const_iterator", align 8
  %16 = alloca i32, align 4
  store ptr %0, ptr %5, align 8
  store ptr %1, ptr %6, align 8
  store i64 %2, ptr %7, align 8
  %17 = load i64, ptr %7, align 8
  %18 = icmp slt i64 %17, 0
  br i1 %18, label %19, label %26

19:                                               ; preds = %3
  call void @llvm.lifetime.start.p0(i64 8, ptr %8) #19
  %20 = load i64, ptr %7, align 8
  %21 = load ptr, ptr %5, align 8
  %22 = call noundef i64 @_ZNK5QListIP9ProtoNodeE4sizeEv(ptr noundef align 8 dereferenceable_or_null(24) %21) #19
  %23 = add i64 %20, %22
  store i64 %23, ptr %8, align 8
  call void @llvm.lifetime.start.p0(i64 8, ptr %9) #19
  store i64 0, ptr %9, align 8
  %24 = call noundef align 8 dereferenceable(8) ptr @_Z4qMaxIxERKT_S2_S2_(ptr noundef align 8 dereferenceable(8) %8, ptr noundef align 8 dereferenceable(8) %9)
  %25 = load i64, ptr %24, align 8
  store i64 %25, ptr %7, align 8
  call void @llvm.lifetime.end.p0(i64 8, ptr %9) #19
  call void @llvm.lifetime.end.p0(i64 8, ptr %8) #19
  br label %26

26:                                               ; preds = %19, %3
  %27 = load i64, ptr %7, align 8
  %28 = load ptr, ptr %5, align 8
  %29 = call noundef i64 @_ZNK5QListIP9ProtoNodeE4sizeEv(ptr noundef align 8 dereferenceable_or_null(24) %28) #19
  %30 = icmp slt i64 %27, %29
  br i1 %30, label %31, label %69

31:                                               ; preds = %26
  call void @llvm.lifetime.start.p0(i64 8, ptr %10) #19
  call void @llvm.lifetime.start.p0(i64 8, ptr %11) #19
  call void @llvm.lifetime.start.p0(i64 8, ptr %12) #19
  %32 = load ptr, ptr %5, align 8
  %33 = call ptr @_ZNK5QListIP9ProtoNodeE5beginEv(ptr noundef align 8 dereferenceable_or_null(24) %32) #19
  %34 = getelementptr inbounds nuw %"class.QList<ProtoNode *>::const_iterator", ptr %12, i32 0, i32 0
  store ptr %33, ptr %34, align 8
  %35 = load i64, ptr %7, align 8
  %36 = invoke ptr @_ZNK5QListIP9ProtoNodeE14const_iteratorplIxEENSt9enable_ifIXsr3stdE13is_integral_vIT_EES3_E4typeES6_(ptr noundef align 8 dereferenceable_or_null(8) %12, i64 noundef %35)
          to label %37 unwind label %72

37:                                               ; preds = %31
  %38 = getelementptr inbounds nuw %"class.QList<ProtoNode *>::const_iterator", ptr %11, i32 0, i32 0
  store ptr %36, ptr %38, align 8
  %39 = invoke ptr @_ZNK5QListIP9ProtoNodeE14const_iteratormiIiEENSt9enable_ifIXsr3stdE13is_integral_vIT_EES3_E4typeES6_(ptr noundef align 8 dereferenceable_or_null(8) %11, i32 noundef 1)
          to label %40 unwind label %72

40:                                               ; preds = %37
  %41 = getelementptr inbounds nuw %"class.QList<ProtoNode *>::const_iterator", ptr %10, i32 0, i32 0
  store ptr %39, ptr %41, align 8
  call void @llvm.lifetime.end.p0(i64 8, ptr %12) #19
  call void @llvm.lifetime.end.p0(i64 8, ptr %11) #19
  call void @llvm.lifetime.start.p0(i64 8, ptr %13) #19
  %42 = load ptr, ptr %5, align 8
  %43 = call ptr @_ZNK5QListIP9ProtoNodeE3endEv(ptr noundef align 8 dereferenceable_or_null(24) %42) #19
  %44 = getelementptr inbounds nuw %"class.QList<ProtoNode *>::const_iterator", ptr %13, i32 0, i32 0
  store ptr %43, ptr %44, align 8
  br label %45

45:                                               ; preds = %64, %40
  %46 = call noundef align 8 dereferenceable(8) ptr @_ZN5QListIP9ProtoNodeE14const_iteratorppEv(ptr noundef align 8 dereferenceable_or_null(8) %10)
  call void @llvm.memcpy.p0.p0.i64(ptr align 8 %14, ptr align 8 %13, i64 8, i1 false)
  %47 = getelementptr inbounds nuw %"class.QList<ProtoNode *>::const_iterator", ptr %14, i32 0, i32 0
  %48 = load ptr, ptr %47, align 8
  %49 = call noundef zeroext i1 @_ZNK5QListIP9ProtoNodeE14const_iteratorneES3_(ptr noundef align 8 dereferenceable_or_null(8) %46, ptr %48)
  br i1 %49, label %50, label %65

50:                                               ; preds = %45
  %51 = call noundef align 8 dereferenceable(8) ptr @_ZNK5QListIP9ProtoNodeE14const_iteratordeEv(ptr noundef align 8 dereferenceable_or_null(8) %10)
  %52 = load ptr, ptr %51, align 8
  %53 = load ptr, ptr %6, align 8
  %54 = load ptr, ptr %53, align 8
  %55 = icmp eq ptr %52, %54
  br i1 %55, label %56, label %64

56:                                               ; preds = %50
  %57 = load ptr, ptr %5, align 8
  %58 = call ptr @_ZNK5QListIP9ProtoNodeE5beginEv(ptr noundef align 8 dereferenceable_or_null(24) %57) #19
  %59 = getelementptr inbounds nuw %"class.QList<ProtoNode *>::const_iterator", ptr %15, i32 0, i32 0
  store ptr %58, ptr %59, align 8
  %60 = getelementptr inbounds nuw %"class.QList<ProtoNode *>::const_iterator", ptr %15, i32 0, i32 0
  %61 = load ptr, ptr %60, align 8
  %62 = invoke noundef i64 @_ZNK5QListIP9ProtoNodeE14const_iteratormiES3_(ptr noundef align 8 dereferenceable_or_null(8) %10, ptr %61)
          to label %63 unwind label %72

63:                                               ; preds = %56
  store i64 %62, ptr %4, align 8
  store i32 1, ptr %16, align 4
  br label %66

64:                                               ; preds = %50
  br label %45, !llvm.loop !14

65:                                               ; preds = %45
  store i32 0, ptr %16, align 4
  br label %66

66:                                               ; preds = %65, %63
  call void @llvm.lifetime.end.p0(i64 8, ptr %13) #19
  call void @llvm.lifetime.end.p0(i64 8, ptr %10) #19
  %67 = load i32, ptr %16, align 4
  switch i32 %67, label %75 [
    i32 0, label %68
    i32 1, label %70
  ]

68:                                               ; preds = %66
  br label %69

69:                                               ; preds = %68, %26
  store i64 -1, ptr %4, align 8
  br label %70

70:                                               ; preds = %69, %66
  %71 = load i64, ptr %4, align 8
  ret i64 %71

72:                                               ; preds = %56, %37, %31
  %73 = landingpad { ptr, i32 }
          catch ptr null
  %74 = extractvalue { ptr, i32 } %73, 0
  call void @__clang_call_terminate(ptr %74) #22
  unreachable

75:                                               ; preds = %66
  unreachable
}

; Function Attrs: mustprogress nounwind null_pointer_is_valid sspstrong uwtable
define linkonce_odr noundef ptr @_ZNK23QListSpecialMethodsBaseIP9ProtoNodeE4selfEv(ptr noundef align 1 dereferenceable_or_null(1) %0) #1 comdat align 2 {
  %2 = alloca ptr, align 8
  store ptr %0, ptr %2, align 8
  %3 = load ptr, ptr %2, align 8
  ret ptr %3
}

; Function Attrs: mustprogress nounwind null_pointer_is_valid sspstrong uwtable
define linkonce_odr noundef i64 @_ZNK23QListSpecialMethodsBaseIP9ProtoNodeE7indexOfIS1_EExRKT_x(ptr noundef align 1 dereferenceable_or_null(1) %0, ptr noundef align 8 dereferenceable(8) %1, i64 noundef %2) #1 comdat align 2 personality ptr @__gxx_personality_v0 {
  %4 = alloca ptr, align 8
  %5 = alloca ptr, align 8
  %6 = alloca i64, align 8
  store ptr %0, ptr %4, align 8
  store ptr %1, ptr %5, align 8
  store i64 %2, ptr %6, align 8
  %7 = load ptr, ptr %4, align 8
  %8 = invoke noundef ptr @_ZNK23QListSpecialMethodsBaseIP9ProtoNodeE4selfEv(ptr noundef align 1 dereferenceable_or_null(1) %7)
          to label %9 unwind label %13

9:                                                ; preds = %3
  %10 = load ptr, ptr %5, align 8
  %11 = load i64, ptr %6, align 8
  %12 = call noundef i64 @_ZN9QtPrivate7indexOfIP9ProtoNodeS2_EExRK5QListIT_ERKT0_x(ptr noundef align 8 dereferenceable(24) %8, ptr noundef align 8 dereferenceable(8) %10, i64 noundef %11) #19
  ret i64 %12

13:                                               ; preds = %3
  %14 = landingpad { ptr, i32 }
          catch ptr null
  %15 = extractvalue { ptr, i32 } %14, 0
  call void @__clang_call_terminate(ptr %15) #22
  unreachable
}

; Function Attrs: mustprogress nounwind null_pointer_is_valid sspstrong uwtable
define noundef zeroext i1 @_ZNK9ProtoNode7isChildEv(ptr noundef align 8 dereferenceable_or_null(40) %0) #1 align 2 {
  %2 = alloca ptr, align 8
  store ptr %0, ptr %2, align 8
  %3 = load ptr, ptr %2, align 8
  %4 = getelementptr inbounds nuw %class.ProtoNode, ptr %3, i32 0, i32 0
  %5 = load ptr, ptr %4, align 8
  %6 = icmp ne ptr %5, null
  br i1 %6, label %7, label %13

7:                                                ; preds = %1
  %8 = getelementptr inbounds nuw %class.ProtoNode, ptr %3, i32 0, i32 0
  %9 = load ptr, ptr %8, align 8
  %10 = getelementptr inbounds nuw %struct._proto_node, ptr %9, i32 0, i32 3
  %11 = load ptr, ptr %10, align 8
  %12 = icmp ne ptr %11, null
  br label %13

13:                                               ; preds = %7, %1
  %14 = phi i1 [ false, %1 ], [ %12, %7 ]
  ret i1 %14
}

; Function Attrs: mustprogress nounwind null_pointer_is_valid sspstrong uwtable
define noundef i32 @_ZN9ProtoNode3rowEv(ptr noundef align 8 dereferenceable_or_null(40) %0) #1 align 2 {
  %2 = alloca i32, align 4
  %3 = alloca ptr, align 8
  %4 = alloca ptr, align 8
  store ptr %0, ptr %3, align 8
  %5 = load ptr, ptr %3, align 8
  %6 = call noundef zeroext i1 @_ZNK9ProtoNode7isChildEv(ptr noundef align 8 dereferenceable_or_null(40) %5)
  br i1 %6, label %8, label %7

7:                                                ; preds = %1
  store i32 -1, ptr %2, align 4
  br label %14

8:                                                ; preds = %1
  %9 = getelementptr inbounds nuw %class.ProtoNode, ptr %5, i32 0, i32 2
  %10 = load ptr, ptr %9, align 8
  %11 = getelementptr inbounds nuw %class.ProtoNode, ptr %10, i32 0, i32 1
  call void @llvm.lifetime.start.p0(i64 8, ptr %4) #19
  store ptr %5, ptr %4, align 8
  %12 = call noundef i64 @_ZNK23QListSpecialMethodsBaseIP9ProtoNodeE7indexOfIS1_EExRKT_x(ptr noundef align 1 dereferenceable_or_null(1) %11, ptr noundef align 8 dereferenceable(8) %4, i64 noundef 0) #19
  %13 = trunc i64 %12 to i32
  store i32 %13, ptr %2, align 4
  call void @llvm.lifetime.end.p0(i64 8, ptr %4) #19
  br label %14

14:                                               ; preds = %8, %7
  %15 = load i32, ptr %2, align 4
  ret i32 %15
}