; Function Attrs: mustprogress nofree norecurse nosync nounwind null_pointer_is_valid sspstrong willreturn memory(read, inaccessiblemem: none) uwtable
define noundef i32 @_ZN9ProtoNode3rowEv(ptr noundef readonly align 8 captures(address) dereferenceable_or_null(40) %0) local_unnamed_addr #2 align 2 personality ptr @__gxx_personality_v0 {
  %2 = load ptr, ptr %0, align 8
  %.not.i = icmp eq ptr %2, null
  br i1 %.not.i, label %_ZNK9ProtoNode7isChildEv.exit.thread, label %_ZNK9ProtoNode7isChildEv.exit

_ZNK9ProtoNode7isChildEv.exit:                    ; preds = %1
  %3 = getelementptr inbounds nuw i8, ptr %2, i64 24
  %4 = load ptr, ptr %3, align 8
  %.not = icmp eq ptr %4, null
  br i1 %.not, label %_ZNK9ProtoNode7isChildEv.exit.thread, label %5

5:                                                ; preds = %_ZNK9ProtoNode7isChildEv.exit
  %6 = getelementptr inbounds nuw i8, ptr %0, i64 32
  %7 = load ptr, ptr %6, align 8
  %8 = getelementptr inbounds nuw i8, ptr %7, i64 24
  %9 = load i64, ptr %8, align 8
  %10 = icmp sgt i64 %9, 0
  br i1 %10, label %11, label %_ZNK9ProtoNode7isChildEv.exit.thread

11:                                               ; preds = %5
  %12 = getelementptr inbounds nuw i8, ptr %7, i64 16
  %13 = load ptr, ptr %12, align 8
  %14 = getelementptr i8, ptr %13, i64 -8
  %15 = getelementptr ptr, ptr %13, i64 %9
  br label %16

16:                                               ; preds = %18, %11
  %.sroa.018.0.i.i = phi ptr [ %14, %11 ], [ %17, %18 ]
  %17 = getelementptr i8, ptr %.sroa.018.0.i.i, i64 8
  %.not.i.i = icmp eq ptr %17, %15
  br i1 %.not.i.i, label %_ZNK9ProtoNode7isChildEv.exit.thread, label %18

18:                                               ; preds = %16
  %19 = load ptr, ptr %17, align 8
  %20 = icmp eq ptr %19, %0
  br i1 %20, label %21, label %16, !llvm.loop !11

21:                                               ; preds = %18
  %22 = ptrtoint ptr %17 to i64
  %23 = ptrtoint ptr %13 to i64
  %24 = sub i64 %22, %23
  %25 = lshr exact i64 %24, 3
  %26 = trunc i64 %25 to i32
  br label %_ZNK9ProtoNode7isChildEv.exit.thread

_ZNK9ProtoNode7isChildEv.exit.thread:             ; preds = %16, %21, %5, %1, %_ZNK9ProtoNode7isChildEv.exit
  %.0 = phi i32 [ -1, %_ZNK9ProtoNode7isChildEv.exit ], [ -1, %1 ], [ %26, %21 ], [ -1, %5 ], [ -1, %16 ]
  ret i32 %.0
}